target datalayout = "e-m:e-p270:32:32-p271:32:32-p272:64:64-i64:64-i128:128-f80:128-n8:16:32:64-S128"
target triple = "x86_64-pc-linux-gnu"

%struct.buftag = type { i32, i32, i32, i32, i32 }
%struct.PrefetchBufferResult = type { i32, i8 }
%struct.SMgrRelationData = type { %struct.RelFileLocatorBackend, i32, [4 x i32], i32, [4 x i32], [4 x ptr], i32, %struct.dlist_node }
%struct.RelFileLocatorBackend = type { %struct.RelFileLocator, i32 }
%struct.RelFileLocator = type { i32, i32, i32 }
%struct.dlist_node = type { ptr, ptr }
%union.LWLockPadded = type { %struct.LWLock, [112 x i8] }
%struct.LWLock = type { i16, %struct.pg_atomic_uint32, %struct.proclist_head }
%struct.pg_atomic_uint32 = type { i32 }
%struct.proclist_head = type { i32, i32 }

@io_direct_flags = external global i32, align 4
@MainLWLockArray = external global ptr, align 8

; Function Attrs: inlinehint nounwind uwtable
define internal i32 @BufTableHashPartition(i32 noundef %0) #3 {
  %2 = alloca i32, align 4
  store i32 %0, ptr %2, align 4
  %3 = load i32, ptr %2, align 4
  %4 = urem i32 %3, 128
  ret i32 %4
}

; Function Attrs: inlinehint nounwind uwtable
define internal void @BufTagSetRelForkDetails(ptr noundef %0, i32 noundef %1, i32 noundef %2) #3 {
  %4 = alloca ptr, align 8
  %5 = alloca i32, align 4
  %6 = alloca i32, align 4
  store ptr %0, ptr %4, align 8
  store i32 %1, ptr %5, align 4
  store i32 %2, ptr %6, align 4
  %7 = load i32, ptr %5, align 4
  %8 = load ptr, ptr %4, align 8
  %9 = getelementptr inbounds nuw %struct.buftag, ptr %8, i32 0, i32 2
  store i32 %7, ptr %9, align 4
  %10 = load i32, ptr %6, align 4
  %11 = load ptr, ptr %4, align 8
  %12 = getelementptr inbounds nuw %struct.buftag, ptr %11, i32 0, i32 3
  store i32 %10, ptr %12, align 4
  ret void
}

; Function Attrs: inlinehint nounwind uwtable
define internal ptr @BufMappingPartitionLock(i32 noundef %0) #3 {
  %2 = alloca i32, align 4
  store i32 %0, ptr %2, align 4
  %3 = load ptr, ptr @MainLWLockArray, align 8
  %4 = load i32, ptr %2, align 4
  %5 = call i32 @BufTableHashPartition(i32 noundef %4)
  %6 = add i32 53, %5
  %7 = zext i32 %6 to i64
  %8 = getelementptr inbounds nuw %union.LWLockPadded, ptr %3, i64 %7
  ret ptr %8
}

; Function Attrs: inlinehint nounwind uwtable
define internal void @InitBufferTag(ptr noundef %0, ptr noundef %1, i32 noundef %2, i32 noundef %3) #3 {
  %5 = alloca ptr, align 8
  %6 = alloca ptr, align 8
  %7 = alloca i32, align 4
  %8 = alloca i32, align 4
  store ptr %0, ptr %5, align 8
  store ptr %1, ptr %6, align 8
  store i32 %2, ptr %7, align 4
  store i32 %3, ptr %8, align 4
  %9 = load ptr, ptr %6, align 8
  %10 = getelementptr inbounds nuw %struct.RelFileLocator, ptr %9, i32 0, i32 0
  %11 = load i32, ptr %10, align 4
  %12 = load ptr, ptr %5, align 8
  %13 = getelementptr inbounds nuw %struct.buftag, ptr %12, i32 0, i32 0
  store i32 %11, ptr %13, align 4
  %14 = load ptr, ptr %6, align 8
  %15 = getelementptr inbounds nuw %struct.RelFileLocator, ptr %14, i32 0, i32 1
  %16 = load i32, ptr %15, align 4
  %17 = load ptr, ptr %5, align 8
  %18 = getelementptr inbounds nuw %struct.buftag, ptr %17, i32 0, i32 1
  store i32 %16, ptr %18, align 4
  %19 = load ptr, ptr %5, align 8
  %20 = load ptr, ptr %6, align 8
  %21 = getelementptr inbounds nuw %struct.RelFileLocator, ptr %20, i32 0, i32 2
  %22 = load i32, ptr %21, align 4
  %23 = load i32, ptr %7, align 4
  call void @BufTagSetRelForkDetails(ptr noundef %19, i32 noundef %22, i32 noundef %23)
  %24 = load i32, ptr %8, align 4
  %25 = load ptr, ptr %5, align 8
  %26 = getelementptr inbounds nuw %struct.buftag, ptr %25, i32 0, i32 4
  store i32 %24, ptr %26, align 4
  ret void
}

; Function Attrs: nounwind uwtable
define dso_local i64 @PrefetchSharedBuffer(ptr noundef %0, i32 noundef %1, i32 noundef %2) #0 {
  %4 = alloca %struct.PrefetchBufferResult, align 4
  %5 = alloca ptr, align 8
  %6 = alloca i32, align 4
  %7 = alloca i32, align 4
  %8 = alloca %struct.buftag, align 4
  %9 = alloca i32, align 4
  %10 = alloca ptr, align 8
  %11 = alloca i32, align 4
  store ptr %0, ptr %5, align 8
  store i32 %1, ptr %6, align 4
  store i32 %2, ptr %7, align 4
  call void @llvm.memset.p0.i64(ptr align 4 %4, i8 0, i64 8, i1 false)
  call void @llvm.lifetime.start.p0(i64 20, ptr %8) #10
  call void @llvm.lifetime.start.p0(i64 4, ptr %9) #10
  call void @llvm.lifetime.start.p0(i64 8, ptr %10) #10
  call void @llvm.lifetime.start.p0(i64 4, ptr %11) #10
  %12 = load ptr, ptr %5, align 8
  %13 = getelementptr inbounds nuw %struct.SMgrRelationData, ptr %12, i32 0, i32 0
  %14 = getelementptr inbounds nuw %struct.RelFileLocatorBackend, ptr %13, i32 0, i32 0
  %15 = load i32, ptr %6, align 4
  %16 = load i32, ptr %7, align 4
  call void @InitBufferTag(ptr noundef %8, ptr noundef %14, i32 noundef %15, i32 noundef %16)
  %17 = call i32 @BufTableHashCode(ptr noundef %8)
  store i32 %17, ptr %9, align 4
  %18 = load i32, ptr %9, align 4
  %19 = call ptr @BufMappingPartitionLock(i32 noundef %18)
  store ptr %19, ptr %10, align 8
  %20 = load ptr, ptr %10, align 8
  %21 = call zeroext i1 @LWLockAcquire(ptr noundef %20, i32 noundef 1)
  %22 = load i32, ptr %9, align 4
  %23 = call i32 @BufTableLookup(ptr noundef %8, i32 noundef %22)
  store i32 %23, ptr %11, align 4
  %24 = load ptr, ptr %10, align 8
  call void @LWLockRelease(ptr noundef %24)
  %25 = load i32, ptr %11, align 4
  %26 = icmp slt i32 %25, 0
  br i1 %26, label %27, label %39

27:                                               ; preds = %3
  %28 = load i32, ptr @io_direct_flags, align 4
  %29 = and i32 %28, 1
  %30 = icmp eq i32 %29, 0
  br i1 %30, label %31, label %38

31:                                               ; preds = %27
  %32 = load ptr, ptr %5, align 8
  %33 = load i32, ptr %6, align 4
  %34 = load i32, ptr %7, align 4
  %35 = call zeroext i1 @smgrprefetch(ptr noundef %32, i32 noundef %33, i32 noundef %34, i32 noundef 1)
  br i1 %35, label %36, label %38

36:                                               ; preds = %31
  %37 = getelementptr inbounds nuw %struct.PrefetchBufferResult, ptr %4, i32 0, i32 1
  store i8 1, ptr %37, align 4
  br label %38

38:                                               ; preds = %36, %31, %27
  br label %43

39:                                               ; preds = %3
  %40 = load i32, ptr %11, align 4
  %41 = add i32 %40, 1
  %42 = getelementptr inbounds nuw %struct.PrefetchBufferResult, ptr %4, i32 0, i32 0
  store i32 %41, ptr %42, align 4
  br label %43

43:                                               ; preds = %39, %38
  call void @llvm.lifetime.end.p0(i64 4, ptr %11) #10
  call void @llvm.lifetime.end.p0(i64 8, ptr %10) #10
  call void @llvm.lifetime.end.p0(i64 4, ptr %9) #10
  call void @llvm.lifetime.end.p0(i64 20, ptr %8) #10
  %44 = load i64, ptr %4, align 4
  ret i64 %44
}