; Function Attrs: nounwind uwtable
define dso_local range(i64 0, 4294967297) i64 @PrefetchSharedBuffer(ptr noundef %0, i32 noundef %1, i32 noundef %2) local_unnamed_addr #0 {
  %4 = alloca %struct.buftag, align 4
  call void @llvm.lifetime.start.p0(i64 20, ptr nonnull %4) #16
  %5 = load i32, ptr %0, align 4
  store i32 %5, ptr %4, align 4
  %6 = getelementptr inbounds nuw i8, ptr %0, i64 4
  %7 = load i32, ptr %6, align 4
  %8 = getelementptr inbounds nuw i8, ptr %4, i64 4
  store i32 %7, ptr %8, align 4
  %9 = getelementptr inbounds nuw i8, ptr %0, i64 8
  %10 = load i32, ptr %9, align 4
  %11 = getelementptr inbounds nuw i8, ptr %4, i64 8
  store i32 %10, ptr %11, align 4
  %12 = getelementptr inbounds nuw i8, ptr %4, i64 12
  store i32 %1, ptr %12, align 4
  %13 = getelementptr inbounds nuw i8, ptr %4, i64 16
  store i32 %2, ptr %13, align 4
  %14 = call i32 @BufTableHashCode(ptr noundef nonnull %4) #16
  %15 = load ptr, ptr @MainLWLockArray, align 8
  %16 = and i32 %14, 127
  %17 = zext nneg i32 %16 to i64
  %18 = getelementptr inbounds nuw %union.LWLockPadded, ptr %15, i64 %17
  %19 = getelementptr inbounds nuw i8, ptr %18, i64 6784
  %20 = call zeroext i1 @LWLockAcquire(ptr noundef nonnull %19, i32 noundef 1) #16
  %21 = call i32 @BufTableLookup(ptr noundef nonnull %4, i32 noundef %14) #16
  call void @LWLockRelease(ptr noundef nonnull %19) #16
  %22 = icmp slt i32 %21, 0
  br i1 %22, label %23, label %29

23:                                               ; preds = %3
  %24 = load i32, ptr @io_direct_flags, align 4
  %25 = and i32 %24, 1
  %26 = icmp eq i32 %25, 0
  br i1 %26, label %27, label %32

27:                                               ; preds = %23
  %28 = call zeroext i1 @smgrprefetch(ptr noundef nonnull %0, i32 noundef %1, i32 noundef %2, i32 noundef 1) #16
  %spec.select = select i1 %28, i64 4294967296, i64 0
  br label %32

29:                                               ; preds = %3
  %30 = add nuw i32 %21, 1
  %31 = zext i32 %30 to i64
  br label %32

32:                                               ; preds = %27, %23, %29
  %.sroa.0.0.insert.insert = phi i64 [ 0, %23 ], [ %31, %29 ], [ %spec.select, %27 ]
  call void @llvm.lifetime.end.p0(i64 20, ptr nonnull %4) #16
  ret i64 %.sroa.0.0.insert.insert
}